target datalayout = "e-m:e-p270:32:32-p271:32:32-p272:64:64-i64:64-i128:128-f80:128-n8:16:32:64-S128"
target triple = "x86_64-pc-linux-gnu"

; Function Attrs: nounwind uwtable
define internal void @vc1_h_s_overlap_c(ptr noundef %0, ptr noundef %1, i64 noundef %2, i64 noundef %3, i32 noundef %4) #1 {
  %6 = alloca ptr, align 8
  %7 = alloca ptr, align 8
  %8 = alloca i64, align 8
  %9 = alloca i64, align 8
  %10 = alloca i32, align 4
  %11 = alloca i32, align 4
  %12 = alloca i32, align 4
  %13 = alloca i32, align 4
  %14 = alloca i32, align 4
  %15 = alloca i32, align 4
  %16 = alloca i32, align 4
  %17 = alloca i32, align 4
  %18 = alloca i32, align 4
  %19 = alloca i32, align 4
  store ptr %0, ptr %6, align 8, !tbaa !36
  store ptr %1, ptr %7, align 8, !tbaa !36
  store i64 %2, ptr %8, align 8, !tbaa !47
  store i64 %3, ptr %9, align 8, !tbaa !47
  store i32 %4, ptr %10, align 4, !tbaa !38
  call void @llvm.lifetime.start.p0(i64 4, ptr %11) #7
  call void @llvm.lifetime.start.p0(i64 4, ptr %12) #7
  call void @llvm.lifetime.start.p0(i64 4, ptr %13) #7
  call void @llvm.lifetime.start.p0(i64 4, ptr %14) #7
  call void @llvm.lifetime.start.p0(i64 4, ptr %15) #7
  call void @llvm.lifetime.start.p0(i64 4, ptr %16) #7
  call void @llvm.lifetime.start.p0(i64 4, ptr %17) #7
  call void @llvm.lifetime.start.p0(i64 4, ptr %18) #7
  %20 = load i32, ptr %10, align 4, !tbaa !38
  %21 = and i32 %20, 2
  %22 = icmp ne i32 %21, 0
  %23 = select i1 %22, i32 3, i32 4
  store i32 %23, ptr %18, align 4, !tbaa !38
  call void @llvm.lifetime.start.p0(i64 4, ptr %19) #7
  %24 = load i32, ptr %18, align 4, !tbaa !38
  %25 = sub nsw i32 7, %24
  store i32 %25, ptr %19, align 4, !tbaa !38
  store i32 0, ptr %11, align 4, !tbaa !38
  br label %26

26:                                               ; preds = %111, %5
  %27 = load i32, ptr %11, align 4, !tbaa !38
  %28 = icmp slt i32 %27, 8
  br i1 %28, label %29, label %114

29:                                               ; preds = %26
  %30 = load ptr, ptr %6, align 8, !tbaa !36
  %31 = getelementptr inbounds i16, ptr %30, i64 6
  %32 = load i16, ptr %31, align 2, !tbaa !40
  %33 = sext i16 %32 to i32
  store i32 %33, ptr %12, align 4, !tbaa !38
  %34 = load ptr, ptr %6, align 8, !tbaa !36
  %35 = getelementptr inbounds i16, ptr %34, i64 7
  %36 = load i16, ptr %35, align 2, !tbaa !40
  %37 = sext i16 %36 to i32
  store i32 %37, ptr %13, align 4, !tbaa !38
  %38 = load ptr, ptr %7, align 8, !tbaa !36
  %39 = getelementptr inbounds i16, ptr %38, i64 0
  %40 = load i16, ptr %39, align 2, !tbaa !40
  %41 = sext i16 %40 to i32
  store i32 %41, ptr %14, align 4, !tbaa !38
  %42 = load ptr, ptr %7, align 8, !tbaa !36
  %43 = getelementptr inbounds i16, ptr %42, i64 1
  %44 = load i16, ptr %43, align 2, !tbaa !40
  %45 = sext i16 %44 to i32
  store i32 %45, ptr %15, align 4, !tbaa !38
  %46 = load i32, ptr %12, align 4, !tbaa !38
  %47 = load i32, ptr %15, align 4, !tbaa !38
  %48 = sub nsw i32 %46, %47
  store i32 %48, ptr %16, align 4, !tbaa !38
  %49 = load i32, ptr %12, align 4, !tbaa !38
  %50 = load i32, ptr %15, align 4, !tbaa !38
  %51 = sub nsw i32 %49, %50
  %52 = load i32, ptr %13, align 4, !tbaa !38
  %53 = add nsw i32 %51, %52
  %54 = load i32, ptr %14, align 4, !tbaa !38
  %55 = sub nsw i32 %53, %54
  store i32 %55, ptr %17, align 4, !tbaa !38
  %56 = load i32, ptr %12, align 4, !tbaa !38
  %57 = mul nsw i32 %56, 8
  %58 = load i32, ptr %16, align 4, !tbaa !38
  %59 = sub nsw i32 %57, %58
  %60 = load i32, ptr %18, align 4, !tbaa !38
  %61 = add nsw i32 %59, %60
  %62 = ashr i32 %61, 3
  %63 = trunc i32 %62 to i16
  %64 = load ptr, ptr %6, align 8, !tbaa !36
  %65 = getelementptr inbounds i16, ptr %64, i64 6
  store i16 %63, ptr %65, align 2, !tbaa !40
  %66 = load i32, ptr %13, align 4, !tbaa !38
  %67 = mul nsw i32 %66, 8
  %68 = load i32, ptr %17, align 4, !tbaa !38
  %69 = sub nsw i32 %67, %68
  %70 = load i32, ptr %19, align 4, !tbaa !38
  %71 = add nsw i32 %69, %70
  %72 = ashr i32 %71, 3
  %73 = trunc i32 %72 to i16
  %74 = load ptr, ptr %6, align 8, !tbaa !36
  %75 = getelementptr inbounds i16, ptr %74, i64 7
  store i16 %73, ptr %75, align 2, !tbaa !40
  %76 = load i32, ptr %14, align 4, !tbaa !38
  %77 = mul nsw i32 %76, 8
  %78 = load i32, ptr %17, align 4, !tbaa !38
  %79 = add nsw i32 %77, %78
  %80 = load i32, ptr %18, align 4, !tbaa !38
  %81 = add nsw i32 %79, %80
  %82 = ashr i32 %81, 3
  %83 = trunc i32 %82 to i16
  %84 = load ptr, ptr %7, align 8, !tbaa !36
  %85 = getelementptr inbounds i16, ptr %84, i64 0
  store i16 %83, ptr %85, align 2, !tbaa !40
  %86 = load i32, ptr %15, align 4, !tbaa !38
  %87 = mul nsw i32 %86, 8
  %88 = load i32, ptr %16, align 4, !tbaa !38
  %89 = add nsw i32 %87, %88
  %90 = load i32, ptr %19, align 4, !tbaa !38
  %91 = add nsw i32 %89, %90
  %92 = ashr i32 %91, 3
  %93 = trunc i32 %92 to i16
  %94 = load ptr, ptr %7, align 8, !tbaa !36
  %95 = getelementptr inbounds i16, ptr %94, i64 1
  store i16 %93, ptr %95, align 2, !tbaa !40
  %96 = load i64, ptr %9, align 8, !tbaa !47
  %97 = load ptr, ptr %7, align 8, !tbaa !36
  %98 = getelementptr inbounds i16, ptr %97, i64 %96
  store ptr %98, ptr %7, align 8, !tbaa !36
  %99 = load i64, ptr %8, align 8, !tbaa !47
  %100 = load ptr, ptr %6, align 8, !tbaa !36
  %101 = getelementptr inbounds i16, ptr %100, i64 %99
  store ptr %101, ptr %6, align 8, !tbaa !36
  %102 = load i32, ptr %10, align 4, !tbaa !38
  %103 = and i32 %102, 1
  %104 = icmp ne i32 %103, 0
  br i1 %104, label %105, label %110

105:                                              ; preds = %29
  %106 = load i32, ptr %19, align 4, !tbaa !38
  %107 = sub nsw i32 7, %106
  store i32 %107, ptr %19, align 4, !tbaa !38
  %108 = load i32, ptr %18, align 4, !tbaa !38
  %109 = sub nsw i32 7, %108
  store i32 %109, ptr %18, align 4, !tbaa !38
  br label %110

110:                                              ; preds = %105, %29
  br label %111

111:                                              ; preds = %110
  %112 = load i32, ptr %11, align 4, !tbaa !38
  %113 = add nsw i32 %112, 1
  store i32 %113, ptr %11, align 4, !tbaa !38
  br label %26, !llvm.loop !62

114:                                              ; preds = %26
  call void @llvm.lifetime.end.p0(i64 4, ptr %19) #7
  call void @llvm.lifetime.end.p0(i64 4, ptr %18) #7
  call void @llvm.lifetime.end.p0(i64 4, ptr %17) #7
  call void @llvm.lifetime.end.p0(i64 4, ptr %16) #7
  call void @llvm.lifetime.end.p0(i64 4, ptr %15) #7
  call void @llvm.lifetime.end.p0(i64 4, ptr %14) #7
  call void @llvm.lifetime.end.p0(i64 4, ptr %13) #7
  call void @llvm.lifetime.end.p0(i64 4, ptr %12) #7
  call void @llvm.lifetime.end.p0(i64 4, ptr %11) #7
  ret void
}