; Function Attrs: nofree norecurse nosync nounwind memory(argmem: readwrite) uwtable
define internal void @vc1_h_s_overlap_c(ptr noundef captures(none) %0, ptr noundef captures(none) %1, i64 noundef %2, i64 noundef %3, i32 noundef %4) #1 {
  %6 = and i32 %4, 2
  %.not = icmp eq i32 %6, 0
  %7 = select i1 %.not, i32 4, i32 3
  %8 = xor i32 %7, 7
  %9 = and i32 %4, 1
  %.not41 = icmp eq i32 %9, 0
  br i1 %.not41, label %.split.us, label %.split

.split.us:                                        ; preds = %5, %.split.us
  %.03846.us = phi ptr [ %44, %.split.us ], [ %0, %5 ]
  %.03945.us = phi ptr [ %43, %.split.us ], [ %1, %5 ]
  %.04044.us = phi i32 [ %45, %.split.us ], [ 0, %5 ]
  %10 = getelementptr inbounds nuw i8, ptr %.03846.us, i64 12
  %11 = load i16, ptr %10, align 2, !tbaa !34
  %12 = sext i16 %11 to i32
  %13 = getelementptr inbounds nuw i8, ptr %.03846.us, i64 14
  %14 = load i16, ptr %13, align 2, !tbaa !34
  %15 = sext i16 %14 to i32
  %16 = load i16, ptr %.03945.us, align 2, !tbaa !34
  %17 = sext i16 %16 to i32
  %18 = getelementptr inbounds nuw i8, ptr %.03945.us, i64 2
  %19 = load i16, ptr %18, align 2, !tbaa !34
  %20 = sext i16 %19 to i32
  %21 = sub nsw i32 %12, %20
  %22 = sub nsw i32 %15, %17
  %23 = add nsw i32 %22, %21
  %24 = shl nsw i32 %12, 3
  %25 = or disjoint i32 %24, %7
  %26 = sub nsw i32 %25, %21
  %27 = lshr i32 %26, 3
  %28 = trunc i32 %27 to i16
  store i16 %28, ptr %10, align 2, !tbaa !34
  %29 = shl nsw i32 %15, 3
  %30 = or disjoint i32 %29, %8
  %31 = sub nsw i32 %30, %23
  %32 = lshr i32 %31, 3
  %33 = trunc i32 %32 to i16
  store i16 %33, ptr %13, align 2, !tbaa !34
  %34 = shl nsw i32 %17, 3
  %35 = or disjoint i32 %34, %7
  %36 = add nsw i32 %35, %23
  %37 = lshr i32 %36, 3
  %38 = trunc i32 %37 to i16
  store i16 %38, ptr %.03945.us, align 2, !tbaa !34
  %39 = add nsw i32 %21, %8
  %40 = lshr i32 %39, 3
  %41 = trunc i32 %40 to i16
  %42 = add i16 %19, %41
  store i16 %42, ptr %18, align 2, !tbaa !34
  %43 = getelementptr inbounds i16, ptr %.03945.us, i64 %3
  %44 = getelementptr inbounds i16, ptr %.03846.us, i64 %2
  %45 = add nuw nsw i32 %.04044.us, 1
  %exitcond52.not = icmp eq i32 %45, 8
  br i1 %exitcond52.not, label %.split50.us, label %.split.us, !llvm.loop !52

.split:                                           ; preds = %5, %.split
  %.048 = phi i32 [ %81, %.split ], [ %8, %5 ]
  %.03647 = phi i32 [ %82, %.split ], [ %7, %5 ]
  %.03846 = phi ptr [ %80, %.split ], [ %0, %5 ]
  %.03945 = phi ptr [ %79, %.split ], [ %1, %5 ]
  %.04044 = phi i32 [ %83, %.split ], [ 0, %5 ]
  %46 = getelementptr inbounds nuw i8, ptr %.03846, i64 12
  %47 = load i16, ptr %46, align 2, !tbaa !34
  %48 = sext i16 %47 to i32
  %49 = getelementptr inbounds nuw i8, ptr %.03846, i64 14
  %50 = load i16, ptr %49, align 2, !tbaa !34
  %51 = sext i16 %50 to i32
  %52 = load i16, ptr %.03945, align 2, !tbaa !34
  %53 = sext i16 %52 to i32
  %54 = getelementptr inbounds nuw i8, ptr %.03945, i64 2
  %55 = load i16, ptr %54, align 2, !tbaa !34
  %56 = sext i16 %55 to i32
  %57 = sub nsw i32 %48, %56
  %58 = sub nsw i32 %51, %53
  %59 = add nsw i32 %58, %57
  %60 = shl nsw i32 %48, 3
  %61 = add nsw i32 %60, %.03647
  %62 = sub nsw i32 %61, %57
  %63 = lshr i32 %62, 3
  %64 = trunc i32 %63 to i16
  store i16 %64, ptr %46, align 2, !tbaa !34
  %65 = shl nsw i32 %51, 3
  %66 = add nsw i32 %65, %.048
  %67 = sub nsw i32 %66, %59
  %68 = lshr i32 %67, 3
  %69 = trunc i32 %68 to i16
  store i16 %69, ptr %49, align 2, !tbaa !34
  %70 = shl nsw i32 %53, 3
  %71 = add nsw i32 %70, %.03647
  %72 = add nsw i32 %71, %59
  %73 = lshr i32 %72, 3
  %74 = trunc i32 %73 to i16
  store i16 %74, ptr %.03945, align 2, !tbaa !34
  %75 = add nsw i32 %57, %.048
  %76 = lshr i32 %75, 3
  %77 = trunc i32 %76 to i16
  %78 = add i16 %55, %77
  store i16 %78, ptr %54, align 2, !tbaa !34
  %79 = getelementptr inbounds i16, ptr %.03945, i64 %3
  %80 = getelementptr inbounds i16, ptr %.03846, i64 %2
  %81 = sub nuw nsw i32 7, %.048
  %82 = xor i32 %.03647, 7
  %83 = add nuw nsw i32 %.04044, 1
  %exitcond.not = icmp eq i32 %83, 8
  br i1 %exitcond.not, label %.split50.us, label %.split, !llvm.loop !52

.split50.us:                                      ; preds = %.split, %.split.us
  ret void
}